; ModuleID = '35/41.c'
source_filename = "35/41.c"
target datalayout = "e-m:e-p270:32:32-p271:32:32-p272:64:64-i64:64-f80:128-n8:16:32:64-S128"
target triple = "x86_64-pc-linux-gnu"

@.str = private unnamed_addr constant [6 x i8] c"%d,%d\00", align 1
@.str.1 = private unnamed_addr constant [3 x i8] c"%d\00", align 1
@.str.2 = private unnamed_addr constant [6 x i8] c"%d+%d\00", align 1
@.str.3 = private unnamed_addr constant [3 x i8] c"No\00", align 1

; Function Attrs: noinline nounwind uwtable
define dso_local i32 @main() #0 {
  %1 = alloca i32, align 4
  %2 = alloca [100 x [100 x i32]], align 16
  %3 = alloca [100 x i32], align 16
  %4 = alloca i32, align 4
  %5 = alloca i32, align 4
  %6 = alloca [100 x i32], align 16
  %7 = alloca i32, align 4
  %8 = alloca i32, align 4
  %9 = alloca i32, align 4
  store i32 0, i32* %1, align 4
  %10 = bitcast [100 x i32]* %3 to i8*
  call void @llvm.memset.p0i8.i64(i8* align 16 %10, i8 0, i64 400, i1 false)
  %11 = bitcast [100 x i32]* %6 to i8*
  call void @llvm.memset.p0i8.i64(i8* align 16 %11, i8 0, i64 400, i1 false)
  %12 = bitcast i8* %11 to <{ i32, [99 x i32] }>*
  %13 = getelementptr inbounds <{ i32, [99 x i32] }>, <{ i32, [99 x i32] }>* %12, i32 0, i32 0
  store i32 1, i32* %13, align 16
  store i32 0, i32* %9, align 4
  %14 = call i32 (i8*, ...) @__isoc99_scanf(i8* getelementptr inbounds ([6 x i8], [6 x i8]* @.str, i64 0, i64 0), i32* %4, i32* %5)
  store i32 0, i32* %7, align 4
  br label %15

15:                                               ; preds = %58, %0
  %16 = load i32, i32* %7, align 4
  %17 = load i32, i32* %4, align 4
  %18 = icmp slt i32 %16, %17
  br i1 %18, label %19, label %61

19:                                               ; preds = %15
  store i32 0, i32* %8, align 4
  br label %20

20:                                               ; preds = %54, %19
  %21 = load i32, i32* %8, align 4
  %22 = load i32, i32* %5, align 4
  %23 = icmp slt i32 %21, %22
  br i1 %23, label %24, label %57

24:                                               ; preds = %20
  %25 = load i32, i32* %7, align 4
  %26 = sext i32 %25 to i64
  %27 = getelementptr inbounds [100 x [100 x i32]], [100 x [100 x i32]]* %2, i64 0, i64 %26
  %28 = load i32, i32* %8, align 4
  %29 = sext i32 %28 to i64
  %30 = getelementptr inbounds [100 x i32], [100 x i32]* %27, i64 0, i64 %29
  %31 = call i32 (i8*, ...) @__isoc99_scanf(i8* getelementptr inbounds ([3 x i8], [3 x i8]* @.str.1, i64 0, i64 0), i32* %30)
  %32 = load i32, i32* %9, align 4
  %33 = load i32, i32* %7, align 4
  %34 = sext i32 %33 to i64
  %35 = getelementptr inbounds [100 x [100 x i32]], [100 x [100 x i32]]* %2, i64 0, i64 %34
  %36 = load i32, i32* %8, align 4
  %37 = sext i32 %36 to i64
  %38 = getelementptr inbounds [100 x i32], [100 x i32]* %35, i64 0, i64 %37
  %39 = load i32, i32* %38, align 4
  %40 = icmp slt i32 %32, %39
  br i1 %40, label %41, label %53

41:                                               ; preds = %24
  %42 = load i32, i32* %8, align 4
  %43 = load i32, i32* %7, align 4
  %44 = sext i32 %43 to i64
  %45 = getelementptr inbounds [100 x i32], [100 x i32]* %3, i64 0, i64 %44
  store i32 %42, i32* %45, align 4
  %46 = load i32, i32* %7, align 4
  %47 = sext i32 %46 to i64
  %48 = getelementptr inbounds [100 x [100 x i32]], [100 x [100 x i32]]* %2, i64 0, i64 %47
  %49 = load i32, i32* %8, align 4
  %50 = sext i32 %49 to i64
  %51 = getelementptr inbounds [100 x i32], [100 x i32]* %48, i64 0, i64 %50
  %52 = load i32, i32* %51, align 4
  store i32 %52, i32* %9, align 4
  br label %53

53:                                               ; preds = %41, %24
  br label %54

54:                                               ; preds = %53
  %55 = load i32, i32* %8, align 4
  %56 = add nsw i32 %55, 1
  store i32 %56, i32* %8, align 4
  br label %20

57:                                               ; preds = %20
  br label %58

58:                                               ; preds = %57
  %59 = load i32, i32* %7, align 4
  %60 = add nsw i32 %59, 1
  store i32 %60, i32* %7, align 4
  br label %15

61:                                               ; preds = %15
  store i32 0, i32* %8, align 4
  br label %62

62:                                               ; preds = %115, %61
  %63 = load i32, i32* %8, align 4
  %64 = load i32, i32* %4, align 4
  %65 = icmp slt i32 %63, %64
  br i1 %65, label %66, label %118

66:                                               ; preds = %62
  store i32 0, i32* %7, align 4
  br label %67

67:                                               ; preds = %98, %66
  %68 = load i32, i32* %7, align 4
  %69 = load i32, i32* %4, align 4
  %70 = icmp slt i32 %68, %69
  br i1 %70, label %71, label %101

71:                                               ; preds = %67
  %72 = load i32, i32* %7, align 4
  %73 = sext i32 %72 to i64
  %74 = getelementptr inbounds [100 x [100 x i32]], [100 x [100 x i32]]* %2, i64 0, i64 %73
  %75 = load i32, i32* %8, align 4
  %76 = sext i32 %75 to i64
  %77 = getelementptr inbounds [100 x i32], [100 x i32]* %3, i64 0, i64 %76
  %78 = load i32, i32* %77, align 4
  %79 = sext i32 %78 to i64
  %80 = getelementptr inbounds [100 x i32], [100 x i32]* %74, i64 0, i64 %79
  %81 = load i32, i32* %80, align 4
  %82 = load i32, i32* %8, align 4
  %83 = sext i32 %82 to i64
  %84 = getelementptr inbounds [100 x [100 x i32]], [100 x [100 x i32]]* %2, i64 0, i64 %83
  %85 = load i32, i32* %8, align 4
  %86 = sext i32 %85 to i64
  %87 = getelementptr inbounds [100 x i32], [100 x i32]* %3, i64 0, i64 %86
  %88 = load i32, i32* %87, align 4
  %89 = sext i32 %88 to i64
  %90 = getelementptr inbounds [100 x i32], [100 x i32]* %84, i64 0, i64 %89
  %91 = load i32, i32* %90, align 4
  %92 = icmp slt i32 %81, %91
  br i1 %92, label %93, label %97

93:                                               ; preds = %71
  %94 = load i32, i32* %8, align 4
  %95 = sext i32 %94 to i64
  %96 = getelementptr inbounds [100 x i32], [100 x i32]* %6, i64 0, i64 %95
  store i32 0, i32* %96, align 4
  br label %97

97:                                               ; preds = %93, %71
  br label %98

98:                                               ; preds = %97
  %99 = load i32, i32* %7, align 4
  %100 = add nsw i32 %99, 1
  store i32 %100, i32* %7, align 4
  br label %67

101:                                              ; preds = %67
  %102 = load i32, i32* %8, align 4
  %103 = sext i32 %102 to i64
  %104 = getelementptr inbounds [100 x i32], [100 x i32]* %6, i64 0, i64 %103
  %105 = load i32, i32* %104, align 4
  %106 = icmp eq i32 %105, 1
  br i1 %106, label %107, label %114

107:                                              ; preds = %101
  %108 = load i32, i32* %8, align 4
  %109 = load i32, i32* %8, align 4
  %110 = sext i32 %109 to i64
  %111 = getelementptr inbounds [100 x i32], [100 x i32]* %3, i64 0, i64 %110
  %112 = load i32, i32* %111, align 4
  %113 = call i32 (i8*, ...) @printf(i8* getelementptr inbounds ([6 x i8], [6 x i8]* @.str.2, i64 0, i64 0), i32 %108, i32 %112)
  br label %114

114:                                              ; preds = %107, %101
  br label %115

115:                                              ; preds = %114
  %116 = load i32, i32* %8, align 4
  %117 = add nsw i32 %116, 1
  store i32 %117, i32* %8, align 4
  br label %62

118:                                              ; preds = %62
  store i32 0, i32* %9, align 4
  store i32 0, i32* %8, align 4
  br label %119

119:                                              ; preds = %130, %118
  %120 = load i32, i32* %8, align 4
  %121 = load i32, i32* %4, align 4
  %122 = icmp slt i32 %120, %121
  br i1 %122, label %123, label %133

123:                                              ; preds = %119
  %124 = load i32, i32* %8, align 4
  %125 = sext i32 %124 to i64
  %126 = getelementptr inbounds [100 x i32], [100 x i32]* %6, i64 0, i64 %125
  %127 = load i32, i32* %126, align 4
  %128 = load i32, i32* %9, align 4
  %129 = add nsw i32 %128, %127
  store i32 %129, i32* %9, align 4
  br label %130

130:                                              ; preds = %123
  %131 = load i32, i32* %8, align 4
  %132 = add nsw i32 %131, 1
  store i32 %132, i32* %8, align 4
  br label %119

133:                                              ; preds = %119
  %134 = load i32, i32* %9, align 4
  %135 = icmp eq i32 %134, 0
  br i1 %135, label %136, label %138

136:                                              ; preds = %133
  %137 = call i32 (i8*, ...) @printf(i8* getelementptr inbounds ([3 x i8], [3 x i8]* @.str.3, i64 0, i64 0))
  br label %138

138:                                              ; preds = %136, %133
  %139 = load i32, i32* %1, align 4
  ret i32 %139
}

; Function Attrs: argmemonly nounwind willreturn
declare void @llvm.memset.p0i8.i64(i8* nocapture writeonly, i8, i64, i1 immarg) #1

declare dso_local i32 @__isoc99_scanf(i8*, ...) #2

declare dso_local i32 @printf(i8*, ...) #2


!llvm.module.flags = !{!0}
!llvm.ident = !{!1}

!0 = !{i32 1, !"wchar_size", i32 4}
!1 = !{!"clang version 10.0.0-4ubuntu1 "}
